target datalayout = "e-m:e-p270:32:32-p271:32:32-p272:64:64-i64:64-i128:128-f80:128-n8:16:32:64-S128"
target triple = "x86_64-pc-linux-gnu"

%struct._zval_struct = type { %union._zend_value, %union.anon.9, %union.anon.12 }
%union._zend_value = type { i64 }
%union.anon.9 = type { i32 }
%union.anon.12 = type { i32 }
%struct._zend_refcounted_h = type { i32, %union.anon.0 }
%union.anon.0 = type { i32 }
%struct._zend_object = type { %struct._zend_refcounted_h, i32, ptr, ptr, ptr, [1 x %struct._zval_struct] }
%struct._zend_string = type { %struct._zend_refcounted_h, i64, i64, [1 x i8] }

@.str = private unnamed_addr constant [28 x i8] c"__PHP_Incomplete_Class_Name\00", align 1
@.str.2 = private unnamed_addr constant [18 x i8] c"access a property\00", align 1
@.str.3 = private unnamed_addr constant [8 x i8] c"unknown\00", align 1

; Function Attrs: nounwind uwtable
define ptr @php_lookup_class_name(ptr noundef %0) #0 {
  %2 = alloca ptr, align 8
  %3 = alloca i32, align 4
  %4 = alloca ptr, align 8
  %5 = alloca ptr, align 8
  %6 = alloca ptr, align 8
  %7 = alloca ptr, align 8
  %8 = alloca ptr, align 8
  store ptr %0, ptr %7, align 8
  %9 = load ptr, ptr %7, align 8
  %10 = getelementptr inbounds %struct._zend_object, ptr %9, i32 0, i32 4
  %11 = load ptr, ptr %10, align 8
  %12 = icmp ne ptr %11, null
  br i1 %12, label %13, label %46

13:                                               ; preds = %1
  %14 = load ptr, ptr %7, align 8
  %15 = getelementptr inbounds %struct._zend_object, ptr %14, i32 0, i32 4
  %16 = load ptr, ptr %15, align 8
  %17 = call ptr @zend_hash_str_find(ptr noundef %16, ptr noundef @.str, i64 noundef 27)
  store ptr %17, ptr %8, align 8
  %18 = load ptr, ptr %8, align 8
  %19 = icmp ne ptr %18, null
  br i1 %19, label %20, label %45

20:                                               ; preds = %13
  %21 = load ptr, ptr %8, align 8
  store ptr %21, ptr %5, align 8
  %22 = load ptr, ptr %5, align 8
  %23 = getelementptr inbounds %struct._zval_struct, ptr %22, i32 0, i32 1
  %24 = load i8, ptr %23, align 8
  %25 = zext i8 %24 to i32
  %26 = icmp eq i32 %25, 6
  br i1 %26, label %27, label %45

27:                                               ; preds = %20
  %28 = load ptr, ptr %8, align 8
  %29 = getelementptr inbounds %struct._zval_struct, ptr %28, i32 0, i32 0
  %30 = load ptr, ptr %29, align 8
  store ptr %30, ptr %4, align 8
  %31 = load ptr, ptr %4, align 8
  %32 = getelementptr inbounds %struct._zend_refcounted_h, ptr %31, i32 0, i32 1
  %33 = load i32, ptr %32, align 4
  store i32 %33, ptr %3, align 4
  %34 = load i32, ptr %3, align 4
  %35 = and i32 %34, 1008
  %36 = and i32 %35, 64
  %37 = icmp ne i32 %36, 0
  br i1 %37, label %43, label %38

38:                                               ; preds = %27
  %39 = load ptr, ptr %4, align 8
  store ptr %39, ptr %2, align 8
  %40 = load ptr, ptr %2, align 8
  %41 = load i32, ptr %40, align 4
  %42 = add i32 %41, 1
  store i32 %42, ptr %40, align 4
  br label %43

43:                                               ; preds = %38, %27
  %44 = load ptr, ptr %4, align 8
  store ptr %44, ptr %6, align 8
  br label %47

45:                                               ; preds = %20, %13
  br label %46

46:                                               ; preds = %45, %1
  store ptr null, ptr %6, align 8
  br label %47

47:                                               ; preds = %46, %43
  %48 = load ptr, ptr %6, align 8
  ret ptr %48
}

; Function Attrs: nounwind uwtable
define internal void @incomplete_class_message(ptr noundef %0) #0 {
  %2 = alloca ptr, align 8
  %3 = alloca i32, align 4
  %4 = alloca ptr, align 8
  %5 = alloca i8, align 1
  %6 = alloca ptr, align 8
  %7 = alloca ptr, align 8
  store ptr %0, ptr %6, align 8
  %8 = load ptr, ptr %6, align 8
  %9 = call ptr @php_lookup_class_name(ptr noundef %8)
  store ptr %9, ptr %7, align 8
  %10 = load ptr, ptr %7, align 8
  %11 = icmp ne ptr %10, null
  br i1 %11, label %12, label %16

12:                                               ; preds = %1
  %13 = load ptr, ptr %7, align 8
  %14 = getelementptr inbounds %struct._zend_string, ptr %13, i32 0, i32 3
  %15 = getelementptr inbounds [1 x i8], ptr %14, i64 0, i64 0
  br label %17

16:                                               ; preds = %1
  br label %17

17:                                               ; preds = %16, %12
  %18 = phi ptr [ %15, %12 ], [ @.str.3, %16 ]
  call void (ptr, i32, ptr, ...) @php_error_docref(ptr noundef null, i32 noundef 2, ptr noundef @.str.1, ptr noundef @.str.2, ptr noundef %18)
  %19 = load ptr, ptr %7, align 8
  %20 = icmp ne ptr %19, null
  br i1 %20, label %21, label %49

21:                                               ; preds = %17
  %22 = load ptr, ptr %7, align 8
  store ptr %22, ptr %4, align 8
  store i8 0, ptr %5, align 1
  %23 = load ptr, ptr %4, align 8
  %24 = getelementptr inbounds %struct._zend_refcounted_h, ptr %23, i32 0, i32 1
  %25 = load i32, ptr %24, align 4
  store i32 %25, ptr %3, align 4
  %26 = load i32, ptr %3, align 4
  %27 = and i32 %26, 1008
  %28 = and i32 %27, 64
  %29 = icmp ne i32 %28, 0
  br i1 %29, label %48, label %30

30:                                               ; preds = %21
  %31 = load ptr, ptr %4, align 8
  store ptr %31, ptr %2, align 8
  %32 = load ptr, ptr %2, align 8
  %33 = load i32, ptr %32, align 4
  %34 = icmp ugt i32 %33, 0
  call void @llvm.assume(i1 %34)
  %35 = load ptr, ptr %2, align 8
  %36 = load i32, ptr %35, align 4
  %37 = add i32 %36, -1
  store i32 %37, ptr %35, align 4
  %38 = icmp eq i32 %37, 0
  br i1 %38, label %39, label %47

39:                                               ; preds = %30
  %40 = load i8, ptr %5, align 1
  %41 = trunc i8 %40 to i1
  br i1 %41, label %42, label %44

42:                                               ; preds = %39
  %43 = load ptr, ptr %4, align 8
  call void @free(ptr noundef %43) #5
  br label %46

44:                                               ; preds = %39
  %45 = load ptr, ptr %4, align 8
  call void @_efree(ptr noundef %45) #5
  br label %46

46:                                               ; preds = %44, %42
  br label %47

47:                                               ; preds = %46, %30
  br label %48

48:                                               ; preds = %47, %21
  br label %49

49:                                               ; preds = %48, %17
  ret void
}