; Function Attrs: nounwind uwtable
define internal fastcc void @incomplete_class_message(ptr %.32.val) unnamed_addr #2 {
  %.not.i = icmp eq ptr %.32.val, null
  br i1 %.not.i, label %php_lookup_class_name.exit.thread, label %1

1:                                                ; preds = %0
  %2 = tail call ptr @zend_hash_str_find(ptr noundef nonnull %.32.val, ptr noundef nonnull @.str, i64 noundef 27) #5
  %.not13.i = icmp eq ptr %2, null
  br i1 %.not13.i, label %php_lookup_class_name.exit.thread, label %3

3:                                                ; preds = %1
  %4 = getelementptr inbounds i8, ptr %2, i64 8
  %5 = load i8, ptr %4, align 8
  %6 = icmp eq i8 %5, 6
  br i1 %6, label %7, label %php_lookup_class_name.exit.thread

7:                                                ; preds = %3
  %8 = load ptr, ptr %2, align 8
  %9 = getelementptr inbounds i8, ptr %8, i64 4
  %10 = load i32, ptr %9, align 4
  %11 = and i32 %10, 64
  %.not14.i = icmp eq i32 %11, 0
  br i1 %.not14.i, label %12, label %15

12:                                               ; preds = %7
  %13 = load i32, ptr %8, align 4
  %14 = add i32 %13, 1
  store i32 %14, ptr %8, align 4
  br label %15

php_lookup_class_name.exit.thread:                ; preds = %1, %3, %0
  tail call void (ptr, i32, ptr, ...) @php_error_docref(ptr noundef null, i32 noundef 2, ptr noundef nonnull @.str.1, ptr noundef nonnull @.str.2, ptr noundef nonnull @.str.3) #5
  br label %25

15:                                               ; preds = %12, %7
  %16 = getelementptr inbounds i8, ptr %8, i64 24
  tail call void (ptr, i32, ptr, ...) @php_error_docref(ptr noundef null, i32 noundef 2, ptr noundef nonnull @.str.1, ptr noundef nonnull @.str.2, ptr noundef nonnull %16) #5
  %17 = load i32, ptr %9, align 4
  %18 = and i32 %17, 64
  %.not12 = icmp eq i32 %18, 0
  br i1 %.not12, label %19, label %25

19:                                               ; preds = %15
  %20 = load i32, ptr %8, align 4
  %21 = icmp ne i32 %20, 0
  tail call void @llvm.assume(i1 %21)
  %22 = add i32 %20, -1
  store i32 %22, ptr %8, align 4
  %23 = icmp eq i32 %22, 0
  br i1 %23, label %24, label %25

24:                                               ; preds = %19
  tail call void @_efree(ptr noundef nonnull %8) #5
  br label %25

25:                                               ; preds = %php_lookup_class_name.exit.thread, %15, %24, %19
  ret void
}